target datalayout = "e-m:e-p270:32:32-p271:32:32-p272:64:64-i64:64-i128:128-f80:128-n8:16:32:64-S128"
target triple = "x86_64-pc-linux-gnu"

%struct.slurm_conf_t = type { i64, ptr, i16, ptr, ptr, ptr, ptr, ptr, i16, ptr, ptr, ptr, ptr, ptr, ptr, ptr, i16, ptr, ptr, ptr, ptr, i16, ptr, ptr, ptr, i64, ptr, ptr, ptr, ptr, i16, ptr, ptr, i16, i32, ptr, i32, ptr, i32, i32, ptr, ptr, i64, i64, ptr, i16, i16, ptr, i32, i32, ptr, i32, ptr, i32, i16, i16, i16, ptr, i16, i16, ptr, ptr, i32, i16, i16, ptr, i32, i16, ptr, ptr, ptr, ptr, i16, ptr, ptr, ptr, ptr, i32, ptr, ptr, ptr, ptr, i16, i16, ptr, i32, i32, i32, i16, i16, ptr, ptr, i16, ptr, ptr, i32, i32, i32, i32, i32, i64, i32, i32, i16, ptr, ptr, i32, ptr, ptr, ptr, i16, i32, ptr, ptr, i16, ptr, ptr, i32, i16, ptr, ptr, ptr, ptr, i32, i32, i16, i16, i32, ptr, i16, ptr, i32, i32, i32, i32, i32, i32, ptr, i16, ptr, ptr, i32, i16, ptr, i32, i16, i16, ptr, ptr, ptr, i16, ptr, ptr, ptr, ptr, i16, i16, ptr, i16, ptr, i16, ptr, i16, ptr, i16, ptr, ptr, ptr, ptr, i16, ptr, ptr, ptr, i32, ptr, i32, ptr, ptr, i16, ptr, ptr, i32, i16, ptr, ptr, i16, i16, ptr, i16, ptr, ptr, ptr, i32, ptr, i16, i16, ptr, ptr, ptr, ptr, ptr, ptr, ptr, ptr, i16, i32, i16, ptr, ptr, ptr, ptr, i32, ptr, ptr, ptr, i16, ptr, ptr, ptr, i16, ptr, i16, ptr, i16, i16, ptr }
%struct.fwd_tree_t = type { ptr, ptr, ptr, ptr, i32, i32, ptr, ptr }
%union.pthread_attr_t = type { i64, [48 x i8] }

@.str = private unnamed_addr constant [29 x i8] c"%s: pthread_mutex_lock(): %m\00", align 1
@.str.2 = private unnamed_addr constant [10 x i8] c"forward.c\00", align 1
@.str.3 = private unnamed_addr constant [31 x i8] c"%s: pthread_mutex_unlock(): %m\00", align 1
@slurm_conf = external global %struct.slurm_conf_t, align 8
@.str.19 = private unnamed_addr constant [22 x i8] c"pthread_attr_init: %m\00", align 1
@.str.20 = private unnamed_addr constant [26 x i8] c"pthread_attr_setscope: %m\00", align 1
@.str.21 = private unnamed_addr constant [30 x i8] c"pthread_attr_setstacksize: %m\00", align 1
@.str.22 = private unnamed_addr constant [35 x i8] c"%s: pthread_attr_setdetachstate %m\00", align 1
@.str.23 = private unnamed_addr constant [28 x i8] c"%s: pthread_create error %m\00", align 1
@.str.24 = private unnamed_addr constant [55 x i8] c"pthread_attr_destroy failed, possible memory leak!: %m\00", align 1
@__func__._start_msg_tree_internal = private unnamed_addr constant [25 x i8] c"_start_msg_tree_internal\00", align 1

; Function Attrs: nounwind uwtable
define internal void @_start_msg_tree_internal(ptr noundef %0, ptr noundef %1, ptr noundef %2, i32 noundef %3) #0 {
  %5 = alloca ptr, align 8
  %6 = alloca ptr, align 8
  %7 = alloca ptr, align 8
  %8 = alloca i32, align 4
  %9 = alloca i32, align 4
  %10 = alloca ptr, align 8
  %11 = alloca ptr, align 8
  %12 = alloca i32, align 4
  %13 = alloca i32, align 4
  %14 = alloca i64, align 8
  %15 = alloca %union.pthread_attr_t, align 8
  %16 = alloca i32, align 4
  %17 = alloca i32, align 4
  %18 = alloca i32, align 4
  store ptr %0, ptr %5, align 8
  store ptr %1, ptr %6, align 8
  store ptr %2, ptr %7, align 8
  store i32 %3, ptr %8, align 4
  call void @llvm.lifetime.start.p0(i64 4, ptr %9) #8
  call void @llvm.lifetime.start.p0(i64 8, ptr %10) #8
  %19 = load ptr, ptr %5, align 8
  %20 = icmp ne ptr %19, null
  br i1 %20, label %21, label %22

21:                                               ; preds = %4
  br label %22

22:                                               ; preds = %21, %4
  %23 = load ptr, ptr %7, align 8
  %24 = getelementptr inbounds nuw %struct.fwd_tree_t, ptr %23, i32 0, i32 4
  %25 = load i32, ptr %24, align 8
  %26 = icmp sle i32 %25, 0
  br i1 %26, label %27, label %33

27:                                               ; preds = %22
  %28 = load i16, ptr getelementptr inbounds nuw (%struct.slurm_conf_t, ptr @slurm_conf, i32 0, i32 110), align 8
  %29 = zext i16 %28 to i32
  %30 = mul nsw i32 %29, 1000
  %31 = load ptr, ptr %7, align 8
  %32 = getelementptr inbounds nuw %struct.fwd_tree_t, ptr %31, i32 0, i32 4
  store i32 %30, ptr %32, align 8
  br label %33

33:                                               ; preds = %27, %22
  store i32 0, ptr %9, align 4
  br label %34

34:                                               ; preds = %155, %33
  %35 = load i32, ptr %9, align 4
  %36 = load i32, ptr %8, align 4
  %37 = icmp slt i32 %35, %36
  br i1 %37, label %38, label %158

38:                                               ; preds = %34
  %39 = call ptr @slurm_xcalloc(i64 noundef 1, i64 noundef 56, i1 noundef zeroext true, i1 noundef zeroext false, ptr noundef @.str.2, i32 noundef 541, ptr noundef @__func__._start_msg_tree_internal)
  store ptr %39, ptr %10, align 8
  %40 = load ptr, ptr %10, align 8
  %41 = load ptr, ptr %7, align 8
  call void @llvm.memcpy.p0.p0.i64(ptr align 8 %40, ptr align 8 %41, i64 56, i1 false)
  %42 = load ptr, ptr %6, align 8
  %43 = icmp ne ptr %42, null
  br i1 %43, label %44, label %56

44:                                               ; preds = %38
  %45 = load ptr, ptr %6, align 8
  %46 = load i32, ptr %9, align 4
  %47 = sext i32 %46 to i64
  %48 = getelementptr inbounds ptr, ptr %45, i64 %47
  %49 = load ptr, ptr %48, align 8
  %50 = load ptr, ptr %10, align 8
  %51 = getelementptr inbounds nuw %struct.fwd_tree_t, ptr %50, i32 0, i32 6
  store ptr %49, ptr %51, align 8
  %52 = load ptr, ptr %6, align 8
  %53 = load i32, ptr %9, align 4
  %54 = sext i32 %53 to i64
  %55 = getelementptr inbounds ptr, ptr %52, i64 %54
  store ptr null, ptr %55, align 8
  br label %68

56:                                               ; preds = %38
  %57 = load ptr, ptr %5, align 8
  %58 = icmp ne ptr %57, null
  br i1 %58, label %59, label %67

59:                                               ; preds = %56
  call void @llvm.lifetime.start.p0(i64 8, ptr %11) #8
  %60 = load ptr, ptr %5, align 8
  %61 = call ptr @hostlist_shift(ptr noundef %60)
  store ptr %61, ptr %11, align 8
  %62 = load ptr, ptr %11, align 8
  %63 = call ptr @hostlist_create(ptr noundef %62)
  %64 = load ptr, ptr %10, align 8
  %65 = getelementptr inbounds nuw %struct.fwd_tree_t, ptr %64, i32 0, i32 6
  store ptr %63, ptr %65, align 8
  %66 = load ptr, ptr %11, align 8
  call void @free(ptr noundef %66) #8
  call void @llvm.lifetime.end.p0(i64 8, ptr %11) #8
  br label %67

67:                                               ; preds = %59, %56
  br label %68

68:                                               ; preds = %67, %44
  br label %69

69:                                               ; preds = %68
  call void @llvm.lifetime.start.p0(i64 4, ptr %12) #8
  %70 = load ptr, ptr %10, align 8
  %71 = getelementptr inbounds nuw %struct.fwd_tree_t, ptr %70, i32 0, i32 7
  %72 = load ptr, ptr %71, align 8
  %73 = call i32 @pthread_mutex_lock(ptr noundef %72) #8
  store i32 %73, ptr %12, align 4
  %74 = load i32, ptr %12, align 4
  %75 = icmp ne i32 %74, 0
  br i1 %75, label %76, label %79

76:                                               ; preds = %69
  %77 = load i32, ptr %12, align 4
  %78 = call ptr @__errno_location() #9
  store i32 %77, ptr %78, align 4
  call void (ptr, ...) @fatal_abort(ptr noundef @.str, ptr noundef @__func__._start_msg_tree_internal) #10
  unreachable

79:                                               ; preds = %69
  call void @llvm.lifetime.end.p0(i64 4, ptr %12) #8
  br label %80

80:                                               ; preds = %79
  br label %81

81:                                               ; preds = %80
  %82 = load ptr, ptr %10, align 8
  %83 = getelementptr inbounds nuw %struct.fwd_tree_t, ptr %82, i32 0, i32 1
  %84 = load ptr, ptr %83, align 8
  %85 = load i32, ptr %84, align 4
  %86 = add nsw i32 %85, 1
  store i32 %86, ptr %84, align 4
  br label %87

87:                                               ; preds = %81
  call void @llvm.lifetime.start.p0(i64 4, ptr %13) #8
  %88 = load ptr, ptr %10, align 8
  %89 = getelementptr inbounds nuw %struct.fwd_tree_t, ptr %88, i32 0, i32 7
  %90 = load ptr, ptr %89, align 8
  %91 = call i32 @pthread_mutex_unlock(ptr noundef %90) #8
  store i32 %91, ptr %13, align 4
  %92 = load i32, ptr %13, align 4
  %93 = icmp ne i32 %92, 0
  br i1 %93, label %94, label %97

94:                                               ; preds = %87
  %95 = load i32, ptr %13, align 4
  %96 = call ptr @__errno_location() #9
  store i32 %95, ptr %96, align 4
  call void (ptr, ...) @fatal_abort(ptr noundef @.str.3, ptr noundef @__func__._start_msg_tree_internal) #10
  unreachable

97:                                               ; preds = %87
  call void @llvm.lifetime.end.p0(i64 4, ptr %13) #8
  br label %98

98:                                               ; preds = %97
  br label %99

99:                                               ; preds = %98
  br label %100

100:                                              ; preds = %99
  call void @llvm.lifetime.start.p0(i64 8, ptr %14) #8
  call void @llvm.lifetime.start.p0(i64 56, ptr %15) #8
  call void @llvm.lifetime.start.p0(i64 4, ptr %16) #8
  br label %101

101:                                              ; preds = %100
  call void @llvm.lifetime.start.p0(i64 4, ptr %17) #8
  %102 = call i32 @pthread_attr_init(ptr noundef %15) #8
  store i32 %102, ptr %17, align 4
  %103 = load i32, ptr %17, align 4
  %104 = icmp ne i32 %103, 0
  br i1 %104, label %105, label %108

105:                                              ; preds = %101
  %106 = load i32, ptr %17, align 4
  %107 = call ptr @__errno_location() #9
  store i32 %106, ptr %107, align 4
  call void (ptr, ...) @fatal(ptr noundef @.str.19) #10
  unreachable

108:                                              ; preds = %101
  %109 = call i32 @pthread_attr_setscope(ptr noundef %15, i32 noundef 0) #8
  store i32 %109, ptr %17, align 4
  %110 = load i32, ptr %17, align 4
  %111 = icmp ne i32 %110, 0
  br i1 %111, label %112, label %116

112:                                              ; preds = %108
  %113 = load i32, ptr %17, align 4
  %114 = call ptr @__errno_location() #9
  store i32 %113, ptr %114, align 4
  %115 = call i32 (ptr, ...) @error(ptr noundef @.str.20)
  br label %116

116:                                              ; preds = %112, %108
  %117 = call i32 @pthread_attr_setstacksize(ptr noundef %15, i64 noundef 1048576) #8
  store i32 %117, ptr %17, align 4
  %118 = load i32, ptr %17, align 4
  %119 = icmp ne i32 %118, 0
  br i1 %119, label %120, label %124

120:                                              ; preds = %116
  %121 = load i32, ptr %17, align 4
  %122 = call ptr @__errno_location() #9
  store i32 %121, ptr %122, align 4
  %123 = call i32 (ptr, ...) @error(ptr noundef @.str.21)
  br label %124

124:                                              ; preds = %120, %116
  call void @llvm.lifetime.end.p0(i64 4, ptr %17) #8
  br label %125

125:                                              ; preds = %124
  br label %126

126:                                              ; preds = %125
  %127 = call i32 @pthread_attr_setdetachstate(ptr noundef %15, i32 noundef 1) #8
  store i32 %127, ptr %16, align 4
  %128 = load i32, ptr %16, align 4
  %129 = icmp ne i32 %128, 0
  br i1 %129, label %130, label %133

130:                                              ; preds = %126
  %131 = load i32, ptr %16, align 4
  %132 = call ptr @__errno_location() #9
  store i32 %131, ptr %132, align 4
  call void (ptr, ...) @fatal(ptr noundef @.str.22, ptr noundef @__func__._start_msg_tree_internal) #10
  unreachable

133:                                              ; preds = %126
  %134 = load ptr, ptr %10, align 8
  %135 = call i32 @pthread_create(ptr noundef %14, ptr noundef %15, ptr noundef @_fwd_tree_thread, ptr noundef %134) #8
  store i32 %135, ptr %16, align 4
  %136 = load i32, ptr %16, align 4
  %137 = icmp ne i32 %136, 0
  br i1 %137, label %138, label %141

138:                                              ; preds = %133
  %139 = load i32, ptr %16, align 4
  %140 = call ptr @__errno_location() #9
  store i32 %139, ptr %140, align 4
  call void (ptr, ...) @fatal(ptr noundef @.str.23, ptr noundef @__func__._start_msg_tree_internal) #10
  unreachable

141:                                              ; preds = %133
  br label %142

142:                                              ; preds = %141
  call void @llvm.lifetime.start.p0(i64 4, ptr %18) #8
  %143 = call i32 @pthread_attr_destroy(ptr noundef %15) #8
  store i32 %143, ptr %18, align 4
  %144 = load i32, ptr %18, align 4
  %145 = icmp ne i32 %144, 0
  br i1 %145, label %146, label %150

146:                                              ; preds = %142
  %147 = load i32, ptr %18, align 4
  %148 = call ptr @__errno_location() #9
  store i32 %147, ptr %148, align 4
  %149 = call i32 (ptr, ...) @error(ptr noundef @.str.24)
  br label %150

150:                                              ; preds = %146, %142
  call void @llvm.lifetime.end.p0(i64 4, ptr %18) #8
  br label %151

151:                                              ; preds = %150
  br label %152

152:                                              ; preds = %151
  call void @llvm.lifetime.end.p0(i64 4, ptr %16) #8
  call void @llvm.lifetime.end.p0(i64 56, ptr %15) #8
  call void @llvm.lifetime.end.p0(i64 8, ptr %14) #8
  br label %153

153:                                              ; preds = %152
  br label %154

154:                                              ; preds = %153
  br label %155

155:                                              ; preds = %154
  %156 = load i32, ptr %9, align 4
  %157 = add nsw i32 %156, 1
  store i32 %157, ptr %9, align 4
  br label %34, !llvm.loop !16

158:                                              ; preds = %34
  call void @llvm.lifetime.end.p0(i64 8, ptr %10) #8
  call void @llvm.lifetime.end.p0(i64 4, ptr %9) #8
  ret void
}