; Function Attrs: nounwind uwtable
define internal fastcc void @_start_msg_tree_internal(ptr noundef %0, ptr noundef captures(address_is_null) %1, ptr noundef captures(none) %2, i32 noundef %3) unnamed_addr #0 {
  %5 = alloca i64, align 8
  %6 = alloca %union.pthread_attr_t, align 8
  %7 = getelementptr inbounds nuw i8, ptr %2, i64 32
  %8 = load i32, ptr %7, align 8
  %9 = icmp slt i32 %8, 1
  br i1 %9, label %10, label %14

10:                                               ; preds = %4
  %11 = load i16, ptr getelementptr inbounds nuw (i8, ptr @slurm_conf, i64 744), align 8
  %12 = zext i16 %11 to i32
  %13 = mul nuw nsw i32 %12, 1000
  store i32 %13, ptr %7, align 8
  br label %14

14:                                               ; preds = %10, %4
  %15 = icmp sgt i32 %3, 0
  br i1 %15, label %.lr.ph, label %._crit_edge

.lr.ph:                                           ; preds = %14
  %.not = icmp eq ptr %1, null
  %.not48 = icmp eq ptr %0, null
  %wide.trip.count = zext nneg i32 %3 to i64
  br label %16

16:                                               ; preds = %.lr.ph, %69
  %indvars.iv = phi i64 [ 0, %.lr.ph ], [ %indvars.iv.next, %69 ]
  %17 = call ptr @slurm_xcalloc(i64 noundef 1, i64 noundef 56, i1 noundef zeroext true, i1 noundef zeroext false, ptr noundef nonnull @.str.2, i32 noundef 541, ptr noundef nonnull @__func__._start_msg_tree_internal) #10
  call void @llvm.memcpy.p0.p0.i64(ptr noundef nonnull align 8 dereferenceable(56) %17, ptr noundef nonnull align 8 dereferenceable(56) %2, i64 56, i1 false)
  br i1 %.not, label %22, label %18

18:                                               ; preds = %16
  %19 = getelementptr inbounds nuw ptr, ptr %1, i64 %indvars.iv
  %20 = load ptr, ptr %19, align 8
  %21 = getelementptr inbounds nuw i8, ptr %17, i64 40
  store ptr %20, ptr %21, align 8
  store ptr null, ptr %19, align 8
  br label %27

22:                                               ; preds = %16
  br i1 %.not48, label %27, label %23

23:                                               ; preds = %22
  %24 = call ptr @hostlist_shift(ptr noundef nonnull %0) #10
  %25 = call ptr @hostlist_create(ptr noundef %24) #10
  %26 = getelementptr inbounds nuw i8, ptr %17, i64 40
  store ptr %25, ptr %26, align 8
  call void @free(ptr noundef %24) #10
  br label %27

27:                                               ; preds = %18, %23, %22
  %28 = getelementptr inbounds nuw i8, ptr %17, i64 48
  %29 = load ptr, ptr %28, align 8
  %30 = call i32 @pthread_mutex_lock(ptr noundef %29) #10
  %.not49 = icmp eq i32 %30, 0
  br i1 %.not49, label %33, label %31

31:                                               ; preds = %27
  %32 = tail call ptr @__errno_location() #11
  store i32 %30, ptr %32, align 4
  call void (ptr, ...) @fatal_abort(ptr noundef nonnull @.str, ptr noundef nonnull @__func__._start_msg_tree_internal) #12
  unreachable

33:                                               ; preds = %27
  %34 = getelementptr inbounds nuw i8, ptr %17, i64 8
  %35 = load ptr, ptr %34, align 8
  %36 = load i32, ptr %35, align 4
  %37 = add nsw i32 %36, 1
  store i32 %37, ptr %35, align 4
  %38 = load ptr, ptr %28, align 8
  %39 = call i32 @pthread_mutex_unlock(ptr noundef %38) #10
  %.not50 = icmp eq i32 %39, 0
  br i1 %.not50, label %42, label %40

40:                                               ; preds = %33
  %41 = tail call ptr @__errno_location() #11
  store i32 %39, ptr %41, align 4
  call void (ptr, ...) @fatal_abort(ptr noundef nonnull @.str.3, ptr noundef nonnull @__func__._start_msg_tree_internal) #12
  unreachable

42:                                               ; preds = %33
  call void @llvm.lifetime.start.p0(i64 8, ptr nonnull %5) #10
  call void @llvm.lifetime.start.p0(i64 56, ptr nonnull %6) #10
  %43 = call i32 @pthread_attr_init(ptr noundef nonnull %6) #10
  %.not51 = icmp eq i32 %43, 0
  br i1 %.not51, label %46, label %44

44:                                               ; preds = %42
  %45 = tail call ptr @__errno_location() #11
  store i32 %43, ptr %45, align 4
  call void (ptr, ...) @fatal(ptr noundef nonnull @.str.19) #12
  unreachable

46:                                               ; preds = %42
  %47 = call i32 @pthread_attr_setscope(ptr noundef nonnull %6, i32 noundef 0) #10
  %.not52 = icmp eq i32 %47, 0
  br i1 %.not52, label %51, label %48

48:                                               ; preds = %46
  %49 = tail call ptr @__errno_location() #11
  store i32 %47, ptr %49, align 4
  %50 = call i32 (ptr, ...) @error(ptr noundef nonnull @.str.20) #10
  br label %51

51:                                               ; preds = %48, %46
  %52 = call i32 @pthread_attr_setstacksize(ptr noundef nonnull %6, i64 noundef 1048576) #10
  %.not53 = icmp eq i32 %52, 0
  br i1 %.not53, label %56, label %53

53:                                               ; preds = %51
  %54 = tail call ptr @__errno_location() #11
  store i32 %52, ptr %54, align 4
  %55 = call i32 (ptr, ...) @error(ptr noundef nonnull @.str.21) #10
  br label %56

56:                                               ; preds = %53, %51
  %57 = call i32 @pthread_attr_setdetachstate(ptr noundef nonnull %6, i32 noundef 1) #10
  %.not54 = icmp eq i32 %57, 0
  br i1 %.not54, label %60, label %58

58:                                               ; preds = %56
  %59 = tail call ptr @__errno_location() #11
  store i32 %57, ptr %59, align 4
  call void (ptr, ...) @fatal(ptr noundef nonnull @.str.22, ptr noundef nonnull @__func__._start_msg_tree_internal) #12
  unreachable

60:                                               ; preds = %56
  %61 = call i32 @pthread_create(ptr noundef nonnull %5, ptr noundef nonnull %6, ptr noundef nonnull @_fwd_tree_thread, ptr noundef nonnull %17) #10
  %.not55 = icmp eq i32 %61, 0
  br i1 %.not55, label %64, label %62

62:                                               ; preds = %60
  %63 = tail call ptr @__errno_location() #11
  store i32 %61, ptr %63, align 4
  call void (ptr, ...) @fatal(ptr noundef nonnull @.str.23, ptr noundef nonnull @__func__._start_msg_tree_internal) #12
  unreachable

64:                                               ; preds = %60
  %65 = call i32 @pthread_attr_destroy(ptr noundef nonnull %6) #10
  %.not56 = icmp eq i32 %65, 0
  br i1 %.not56, label %69, label %66

66:                                               ; preds = %64
  %67 = tail call ptr @__errno_location() #11
  store i32 %65, ptr %67, align 4
  %68 = call i32 (ptr, ...) @error(ptr noundef nonnull @.str.24) #10
  br label %69

69:                                               ; preds = %66, %64
  call void @llvm.lifetime.end.p0(i64 56, ptr nonnull %6) #10
  call void @llvm.lifetime.end.p0(i64 8, ptr nonnull %5) #10
  %indvars.iv.next = add nuw nsw i64 %indvars.iv, 1
  %exitcond.not = icmp eq i64 %indvars.iv.next, %wide.trip.count
  br i1 %exitcond.not, label %._crit_edge, label %16, !llvm.loop !16

._crit_edge:                                      ; preds = %69, %14
  ret void
}